; Function Attrs: null_pointer_is_valid sspstrong uwtable
define internal i32 @dissect_rlc_ctch(ptr noundef %0, ptr noundef %1, ptr noundef %2, ptr noundef captures(address_is_null) %3) #0 {
  %5 = getelementptr inbounds nuw i8, ptr %1, i64 8
  %6 = load ptr, ptr %5, align 8
  tail call void @col_set_str(ptr noundef %6, i32 noundef 35, ptr noundef nonnull @.str.126)
  %7 = load ptr, ptr %5, align 8
  tail call void @col_clear(ptr noundef %7, i32 noundef 25)
  %8 = tail call ptr @wmem_file_scope()
  %9 = load i32, ptr @proto_fp, align 4
  %10 = tail call ptr @p_get_proto_data(ptr noundef %8, ptr noundef %1, i32 noundef %9, i32 noundef 0)
  %.not = icmp eq ptr %10, null
  br i1 %.not, label %18, label %11

11:                                               ; preds = %4
  %.not21 = icmp eq ptr %2, null
  br i1 %.not21, label %.split, label %.split19

.split:                                           ; preds = %11
  tail call void (ptr, ptr, ...) @proto_item_append_text(ptr noundef null, ptr noundef nonnull @.str.223)
  tail call fastcc void @dissect_rlc_um(i32 noundef 7, ptr noundef %0, ptr noundef %1, ptr noundef null, ptr noundef null, ptr noundef %3)
  br label %16

.split19:                                         ; preds = %11
  %12 = load i32, ptr @proto_umts_rlc, align 4
  %13 = tail call ptr @proto_tree_add_item(ptr noundef nonnull %2, i32 noundef %12, ptr noundef %0, i32 noundef 0, i32 noundef -1, i32 noundef 0)
  %14 = load i32, ptr @ett_rlc, align 4
  %15 = tail call ptr @proto_item_add_subtree(ptr noundef %13, i32 noundef %14)
  tail call void (ptr, ptr, ...) @proto_item_append_text(ptr noundef %13, ptr noundef nonnull @.str.223)
  tail call fastcc void @dissect_rlc_um(i32 noundef 7, ptr noundef %0, ptr noundef %1, ptr noundef nonnull %2, ptr noundef %15, ptr noundef %3)
  br label %16

16:                                               ; preds = %.split, %.split19
  %17 = tail call i32 @tvb_captured_length(ptr noundef %0)
  br label %18

18:                                               ; preds = %4, %16
  %.0 = phi i32 [ %17, %16 ], [ 0, %4 ]
  ret i32 %.0
}